target datalayout = "e-m:e-p270:32:32-p271:32:32-p272:64:64-i64:64-i128:128-f80:128-n8:16:32:64-S128"
target triple = "x86_64-pc-linux-gnu"

%struct.fake_handshaker_result = type { %struct.tsi_handshaker_result, ptr, i64 }
%struct.tsi_handshaker_result = type { ptr }

; Function Attrs: mustprogress nounwind uwtable
define internal noundef i32 @_ZL39fake_handshaker_result_get_unused_bytesPK21tsi_handshaker_resultPPKhPm(ptr noundef %0, ptr noundef %1, ptr noundef %2) #7 {
  %4 = alloca ptr, align 8
  %5 = alloca ptr, align 8
  %6 = alloca ptr, align 8
  %7 = alloca ptr, align 8
  store ptr %0, ptr %4, align 8, !tbaa !102
  store ptr %1, ptr %5, align 8, !tbaa !95
  store ptr %2, ptr %6, align 8, !tbaa !43
  call void @llvm.lifetime.start.p0(i64 8, ptr %7) #3
  %8 = load ptr, ptr %4, align 8, !tbaa !102
  store ptr %8, ptr %7, align 8, !tbaa !111
  %9 = load ptr, ptr %7, align 8, !tbaa !111
  %10 = getelementptr inbounds nuw %struct.fake_handshaker_result, ptr %9, i32 0, i32 2
  %11 = load i64, ptr %10, align 8, !tbaa !118
  %12 = load ptr, ptr %6, align 8, !tbaa !43
  store i64 %11, ptr %12, align 8, !tbaa !14
  %13 = load ptr, ptr %7, align 8, !tbaa !111
  %14 = getelementptr inbounds nuw %struct.fake_handshaker_result, ptr %13, i32 0, i32 1
  %15 = load ptr, ptr %14, align 8, !tbaa !117
  %16 = load ptr, ptr %5, align 8, !tbaa !95
  store ptr %15, ptr %16, align 8, !tbaa !12
  call void @llvm.lifetime.end.p0(i64 8, ptr %7) #3
  ret i32 0
}