; Function Attrs: mustprogress nofree norecurse nosync nounwind willreturn memory(argmem: readwrite) uwtable
define internal noundef i32 @_ZL39fake_handshaker_result_get_unused_bytesPK21tsi_handshaker_resultPPKhPm(ptr noundef readonly captures(none) %0, ptr noundef writeonly captures(none) initializes((0, 8)) %1, ptr noundef writeonly captures(none) initializes((0, 8)) %2) #15 {
  %4 = getelementptr inbounds nuw i8, ptr %0, i64 16
  %5 = load i64, ptr %4, align 8, !tbaa !72
  store i64 %5, ptr %2, align 8, !tbaa !40
  %6 = getelementptr inbounds nuw i8, ptr %0, i64 8
  %7 = load ptr, ptr %6, align 8, !tbaa !71
  store ptr %7, ptr %1, align 8, !tbaa !56
  ret i32 0
}